; Function Attrs: mustprogress uwtable
define hidden noundef i32 @_ZN3sat12ddfw_wrapper5checkEjPKNS_7literalEPNS_8parallelE(ptr noundef nonnull align 8 dereferenceable(472) %0, i32 noundef %1, ptr noundef %2, ptr noundef %3) unnamed_addr #3 align 2 personality ptr @__gxx_personality_v0 {
  %5 = getelementptr inbounds nuw i8, ptr %0, i64 448
  %6 = load ptr, ptr %5, align 8, !tbaa !3
  store ptr %3, ptr %5, align 8, !tbaa !3
  %7 = getelementptr inbounds nuw i8, ptr %0, i64 8
  %8 = getelementptr inbounds nuw i8, ptr %0, i64 376
  %9 = getelementptr inbounds nuw i8, ptr %0, i64 392
  %10 = load ptr, ptr %9, align 8, !tbaa !8
  %.not.i = icmp eq ptr %10, null
  br i1 %.not.i, label %_ZNSt8functionIFbvEEaSEDn.exit, label %11

11:                                               ; preds = %4
  %12 = invoke noundef zeroext i1 %10(ptr noundef nonnull align 8 dereferenceable(32) %8, ptr noundef nonnull align 8 dereferenceable(32) %8, i32 noundef 3)
          to label %13 unwind label %14

13:                                               ; preds = %11
  tail call void @llvm.memset.p0.i64(ptr noundef nonnull align 8 dereferenceable(16) %9, i8 0, i64 16, i1 false)
  %.pre = load ptr, ptr %5, align 8, !tbaa !10
  br label %_ZNSt8functionIFbvEEaSEDn.exit

14:                                               ; preds = %11
  %15 = landingpad { ptr, i32 }
          catch ptr null
  %16 = extractvalue { ptr, i32 } %15, 0
  tail call void @__clang_call_terminate(ptr %16) #13
  unreachable

_ZNSt8functionIFbvEEaSEDn.exit:                   ; preds = %4, %13
  %17 = phi ptr [ %3, %4 ], [ %.pre, %13 ]
  %.not = icmp eq ptr %17, null
  br i1 %.not, label %20, label %"_ZNSt8functionIFbvEEaSIZN3sat12ddfw_wrapper5checkEjPKNS3_7literalEPNS3_8parallelEE3$_0EENSt9enable_ifIXsr9_CallableIT_EE5valueERS1_E4typeEOSC_.exit"

"_ZNSt8functionIFbvEEaSIZN3sat12ddfw_wrapper5checkEjPKNS3_7literalEPNS3_8parallelEE3$_0EENSt9enable_ifIXsr9_CallableIT_EE5valueERS1_E4typeEOSC_.exit": ; preds = %_ZNSt8functionIFbvEEaSEDn.exit
  %18 = ptrtoint ptr %0 to i64
  store i64 %18, ptr %8, align 8
  %.sroa.0.i.i.i.sroa.4.0..sroa_idx = getelementptr inbounds nuw i8, ptr %0, i64 384
  store i64 0, ptr %.sroa.0.i.i.i.sroa.4.0..sroa_idx, align 8, !tbaa !65
  store ptr @"_ZNSt17_Function_handlerIFbvEZN3sat12ddfw_wrapper5checkEjPKNS1_7literalEPNS1_8parallelEE3$_0E10_M_managerERSt9_Any_dataRKSA_St18_Manager_operation", ptr %9, align 8, !tbaa !66
  %19 = getelementptr inbounds nuw i8, ptr %0, i64 400
  store ptr @"_ZNSt17_Function_handlerIFbvEZN3sat12ddfw_wrapper5checkEjPKNS1_7literalEPNS1_8parallelEE3$_0E9_M_invokeERKSt9_Any_data", ptr %19, align 8, !tbaa !66
  br label %20

20:                                               ; preds = %"_ZNSt8functionIFbvEEaSIZN3sat12ddfw_wrapper5checkEjPKNS3_7literalEPNS3_8parallelEE3$_0EENSt9enable_ifIXsr9_CallableIT_EE5valueERS1_E4typeEOSC_.exit", %_ZNSt8functionIFbvEEaSEDn.exit
  %21 = invoke noundef i32 @_ZN3sat4ddfw5checkEjPKNS_7literalE(ptr noundef nonnull align 8 dereferenceable(434) %7, i32 noundef %1, ptr noundef %2)
          to label %22 unwind label %23

22:                                               ; preds = %20
  store ptr %6, ptr %5, align 8, !tbaa !3
  ret i32 %21

23:                                               ; preds = %20
  %24 = landingpad { ptr, i32 }
          cleanup
  store ptr %6, ptr %5, align 8, !tbaa !3
  resume { ptr, i32 } %24
}